; Function Attrs: nounwind uwtable
define dso_local i32 @Curl_conn_ev_data_pause(ptr noundef %0, i1 noundef zeroext %1) local_unnamed_addr #1 {
  %3 = getelementptr inbounds nuw i8, ptr %0, i64 24
  %4 = load ptr, ptr %3, align 8, !tbaa !56
  %5 = zext i1 %1 to i32
  %6 = getelementptr inbounds nuw i8, ptr %4, i64 608
  br label %.split.i

.split.i:                                         ; preds = %Curl_conn_cf_cntrl.exit.thread.i, %2
  %7 = phi i1 [ false, %Curl_conn_cf_cntrl.exit.thread.i ], [ true, %2 ]
  %.05.i = phi i64 [ 1, %Curl_conn_cf_cntrl.exit.thread.i ], [ 0, %2 ]
  %8 = getelementptr inbounds nuw [2 x ptr], ptr %6, i64 0, i64 %.05.i
  %9 = load ptr, ptr %8, align 8, !tbaa !51
  %.not1517.i.i = icmp eq ptr %9, null
  br i1 %.not1517.i.i, label %Curl_conn_cf_cntrl.exit.thread.i, label %.lr.ph.split.i.i

.lr.ph.split.i.i:                                 ; preds = %.split.i, %17
  %.01218.i.i = phi ptr [ %19, %17 ], [ %9, %.split.i ]
  %10 = load ptr, ptr %.01218.i.i, align 8, !tbaa !15
  %11 = getelementptr inbounds nuw i8, ptr %10, i64 88
  %12 = load ptr, ptr %11, align 8, !tbaa !129
  %13 = icmp eq ptr %12, @Curl_cf_def_cntrl
  br i1 %13, label %17, label %14

14:                                               ; preds = %.lr.ph.split.i.i
  %15 = tail call i32 %12(ptr noundef nonnull %.01218.i.i, ptr noundef %0, i32 noundef 6, i32 noundef range(i32 0, 2) %5, ptr noundef null) #12
  %16 = icmp eq i32 %15, 0
  br i1 %16, label %17, label %cf_cntrl_all.exit

17:                                               ; preds = %14, %.lr.ph.split.i.i
  %18 = getelementptr inbounds nuw i8, ptr %.01218.i.i, i64 8
  %19 = load ptr, ptr %18, align 8, !tbaa !8
  %.not15.i.i = icmp eq ptr %19, null
  br i1 %.not15.i.i, label %Curl_conn_cf_cntrl.exit.thread.i, label %.lr.ph.split.i.i, !llvm.loop !130

Curl_conn_cf_cntrl.exit.thread.i:                 ; preds = %17, %.split.i
  br i1 %7, label %.split.i, label %cf_cntrl_all.exit, !llvm.loop !131

cf_cntrl_all.exit:                                ; preds = %Curl_conn_cf_cntrl.exit.thread.i, %14
  %.us-phi.i = phi i32 [ %15, %14 ], [ 0, %Curl_conn_cf_cntrl.exit.thread.i ]
  ret i32 %.us-phi.i
}